(dp0
(F40.708134
F-74.016626
tp1
(VBattery Pl
p2
VWest Thames Street
p3
tp4
s(F40.7104515
F-74.0139919
tp5
(VLiberty Park
p6
VThe Sphere
p7
tp8
s(F40.706278
F-74.01119
tp9
(VBroad Street
p10
VExchange Place
p11
tp12
s(F40.707817649999996
F-74.00157580000001
tp13
(VFront Street
p14
VPeck Slip
p15
tp16
s(F40.7105761
F-74.0073842
tp17
(VAnn Street
p18
VNassau Street
p19
tp20
s(F40.7110079
F-74.0107608
tp21
(VChurch Street
p22
VDey Street
p23
tp24
s(F40.7040587
F-74.013192
tp25
(VBroadway
p26
VStone Street
p27
VWhitehall Street
p28
tp29
s(F40.7068535
F-74.0050009
tp30
(VJohn Street
p31
VWater Street
p32
tp33
s(F40.710397
F-74.005599
tp34
(VBeekman Street
p35
VWilliam Street
p36
VWilliam Street Pedestrian Plaza
p37
tp38
s(F40.707216
F-74.002744
tp39
(VBeekman Street
p40
VFront Street
p41
tp42
s(F40.7118054
F-74.0101808
tp43
(VStage Door Pizza
p44
VWorld Trade Center Construction Security
p45
tp46
s(F40.706051
F-74.007452
tp47
(VPearl Street
p48
VPine Street
p49
tp50
s(F40.7030105
F-74.0168244
tp51
(VLeaping Fountain
p52
VStatue of Liberty Ferry
p53
tp54
s(F40.706379
F-74.009502
tp55
(VWall Street
p56
VWilliam Street
p57
tp58
s(F40.707458
F-74.007151
tp59
(V2 Gold Street
p60
VGold Street
p61
tp62
s(F40.7027132
F-74.0122117
tp63
(VMoore Street
p64
VNew York Plaza
p65
VWater Street
p66
tp67
s(F40.7040261
F-74.011576
tp68
(VBroad Street
p69
VStone Street
p70
tp71
s(F40.702264766666666
F-74.01392316666666
tp72
(VBig Yellow C - Staten Island Ferry Terminal
p73
VPeter Minuit Plaza
p74
tp75
s(F40.710327
F-74.009543
tp76
(VBroadway
p77
VJohn Street
p78
tp79
s(F40.706677
F-74.0159533
tp80
(VF D R Dr
p81
VMorris Street
p82
VWest Street
p83
tp84
s(F40.708227
F-74.006531
tp85
(VGold Street
p86
VJohn Street
p87
VNY Living Solutions
p88
tp89
s(F40.704890899999995
F-74.01564400000001
tp90
(VBattery Pl
p91
VWashington Street
p92
tp93
s(F40.7026054
F-74.0160875
tp94
(VF D R Dr
p95
VTable Green Kiosks
p96
tp97
s(F40.705045
F-74.0133173
tp98
(VBeaver Street
p99
VBroadway
p100
tp101
s(F40.706375
F-74.005691
tp102
(VFletcher Street
p103
VWater Street
p104
tp105
s(F40.7077766
F-74.0129583
tp106
(VRector Street
p107
VTrinity Place
p108
tp109
s(F40.7015183
F-74.0124663
tp110
(VSouth Street
p111
VWhitehall Street
p112
tp113
s(F40.704763
F-74.010327
tp114
(VMill Lane
p115
VSouth William Street
p116
tp117
s(F40.7095182
F-73.9940271
tp118
(VMarket Slip
p119
VSouth Street
p120
tp121
s(F40.7060194
F-74.0088308
tp122
(VHanover Street
p123
VRoyal Theater Cinema
p124
VWall Street
p125
tp126
s(F40.7042992
F-74.0146901
tp127
(VLand of Misfit Toys
p128
VNetherlands Monument
p129
tp130
s(F40.704249
F-74.011569
tp131
(VBroad Street
p132
VSouth William Street
p133
tp134
s(F40.7042568
F-74.0062889
tp135
(VSouth Street
p136
VWall Street
p137
tp138
s(F40.713748949999996
F-74.01381015
tp139
(VVesey Street
p140
VWest Street
p141
tp142
s(F40.7083535
F-74.0004737
tp143
(VDover Street
p144
VFront Street
p145
tp146
s(F40.710126540000005
F-74.01287224000001
tp147
(VGreenwich Street
p148
VLiberty Street
p149
tp150
s(F40.711231
F-74.006478
tp151
(VBeekman Street
p152
VNassau Street
p153
tp154
s(F40.7030333
F-74.0162711
tp155
(VF D R Dr
p156
VImmigrants Sculpture
p157
tp158
s(F40.705624
F-74.006766
tp159
(VPine Street
p160
VWater Street
p161
tp162
s(F40.706375
F-74.00713
tp163
(VCedar Street
p164
VPearl Street
p165
tp166
s(F40.7074569
F-74.0171175
tp167
(V3rd Place
p168
VBattery Pl
p169
tp170
s(F40.7129155
F-74.0139828
tp171
(VFulton Street
p172
VWest Street
p173
tp174
s(F40.705794
F-74.0055072
tp175
(VFront Street
p176
VMaiden Lane
p177
tp178
s(F40.7125409
F-74.0076602
tp179
(VBroadway
p180
VPark Place
p181
tp182
s(F40.70287985
F-74.01711645
tp183
(VStatue Cruises - Special Events and Harbor Cruises
p184
VStatue of Liberty Ferry
p185
tp186
s(F40.7110335
F-74.0004596
tp187
(VPearl Street
p188
VSaint James Place
p189
tp190
s(F40.7082321
F-74.0143778
tp191
(VRector Street
p192
VWashington Street
p193
tp194
s(F40.7058713
F-74.0132406
tp195
(VBroadway
p196
VLeman Manhattan Prepatory School- Upper School
p197
VMorris Street
p198
tp199
s(F40.710357220000006
F-74.01374802000001
tp200
(VCedar Street
p201
VLiberty Park
p202
tp203
s(F40.7033126
F-74.0101658
tp204
(VCoenties Slip
p205
VWater Street
p206
tp207
s(F40.7045237
F-74.0142449
tp208
(VBattery Pl
p209
VState Street
p210
tp211
s(F40.7073347
F-74.0086352
tp212
(VCedar Street
p213
VWilliam Street
p214
tp215
s(F40.70966
F-74.004827
tp216
(VBeekman Street
p217
VGold Street
p218
tp219
s(F40.7015175
F-74.015421
tp220
(VBattery Gardens Restaurant
p221
VHugh L. Carey Tunnel
p222
tp223
s(F40.7074467
F-74.0040852
tp224
(VFulton Street
p225
VPearl Street
p226
VWater Street
p227
tp228
s(F40.7023934
F-74.0137888
tp229
(VState Street
p230
VState Street Plaza
p231
tp232
s(F40.710887
F-74.009063
tp233
(VBroadway
p234
VFulton Street
p235
tp236
s(F40.71064585
F-74.01403525
tp237
(VLiberty Street
p238
VThe Sphere
p239
tp240
s(F40.710210366666665
F-74.0130707
tp241
(VBankers Trust Plz
p242
VLiberty Street
p243
tp244
s(F40.707836
F-74.0043276
tp245
(VFulton Street
p246
VPearl Street
p247
tp248
s(F40.70468535
F-74.01655245
tp249
(VBattery Pl
p250
VF D R Dr
p251
tp252
s(F40.7082427
F-74.0019572
tp253
(VPeck Slip
p254
VWater Street
p255
tp256
s(F40.7073649
F-74.0011702
tp257
(VPeck Slip
p258
VSouth Street
p259
tp260
s(F40.70903105
F-74.0121088
tp261
(VThames Street
p262
VTrinity Place
p263
tp264
s(F40.7029871
F-74.0164831
tp265
(VImmigrants Sculpture
p266
VLeaping Fountain
p267
tp268
s(F40.704211
F-74.008789
tp269
(VOld Slip
p270
VWater Street
p271
tp272
s(F40.705447
F-74.008007
tp273
(VBeaver Street
p274
VPearl Street
p275
tp276
s(F40.7120904
F-74.0101303
tp277
(VChurch Street
p278
VVesey Street
p279
tp280
s(F40.706552
F-74.011873
tp281
(VExchange Place
p282
VNew Street
p283
tp284
s(F40.710185
F-74.0042501
tp285
(VGold Street
p286
VSpruce Street
p287
tp288
s(F40.7040838
F-74.0089636
tp289
(VHanover Square
p290
VOld Slip
p291
VWater Street
p292
tp293
s(F40.7031516
F-74.0144384
tp294
(VPearl Street
p295
VState Street
p296
tp297
s(F40.704754566666665
F-74.01500773333333
tp298
(VBattery Pl
p299
VGreenwich Street
p300
tp301
s(F40.7032662
F-74.00787790000001
tp302
(VOld Slip
p303
VSouth Street
p304
tp305
s(F40.703813
F-74.008325
tp306
(VFront Street
p307
VOld Slip
p308
tp309
s(F40.7037097
F-74.0106367
tp310
(VCoenties Slip
p311
VPearl Street
p312
tp313
s(F40.7117008
F-74.0069661
tp314
(VBeekman Street
p315
VPark Row
p316
tp317
s(F40.710952
F-74.003624
tp318
(VGold Street
p319
VRose Street
p320
tp321
s(F40.706993
F-74.0064696
tp322
(VFletcher Street
p323
VPearl Street
p324
tp325
s(F40.707694
F-74.010201
tp326
(VNassau Street
p327
VPine Street
p328
tp329
s(F40.708614
F-74.009371
tp330
(VLiberty Street
p331
VNassau Street
p332
tp333
s(F40.7095053
F-74.0138882
tp334
(VAlbany Street
p335
VWashington Street
p336
tp337
s(F40.708417
F-73.99921535
tp338
(VRobert F. Wagner Sr. Place
p339
VSouth Street
p340
tp341
s(F40.70953
F-74.008418
tp342
(VJohn Street
p343
VNassau Street
p344
tp345
s(F40.7079881
F-74.0080159
tp346
(VMaiden Lane
p347
VWilliam Street
p348
tp349
s(F40.70202783333333
F-74.01546753333334
tp350
(VF D R Dr
p351
VHugh L. Carey Tunnel
p352
tp353
s(F40.708794
F-74.0008601
tp354
(VDover Street
p355
VWater Street
p356
tp357
s(F40.7052372
F-74.0047522
tp358
(VMaiden Lane
p359
VSouth Street
p360
tp361
s(F40.710369
F-74.0111931
tp362
(VChurch Street
p363
VCortlandt Street
p364
tp365
s(F40.70287533333333
F-74.01626073333334
tp366
(VF D R Dr
p367
VLeaping Fountain
p368
tp369
s(F40.7072151
F-74.0165254
tp370
(V3rd Place
p371
VLittle West Street
p372
tp373
s(F40.704546
F-74.01007
tp374
(VMill Lane
p375
VStone Street
p376
tp377
s(F40.7031174
F-74.0130041
tp378
(VPearl Street
p379
VWhitehall Street
p380
tp381
s(F40.70711545
F-74.0139567
tp382
(VEdgar Street
p383
VGreenwich Street
p384
tp385
s(F40.7044796
F-74.0145928
tp386
(VBattery Pl
p387
VNetherlands Monument
p388
tp389
s(F40.708495
F-73.9993088
tp390
(VSea
p391
VSouth Street
p392
tp393
s(F40.71084055
F-74.0142261
tp394
(VLiberty Street
p395
VWest Street
p396
tp397
s(F40.7083571
F-74.0076525
tp398
(VPlatt Street
p399
VWilliam Street
p400
tp401
s(F40.704837633333334
F-74.01657656666667
tp402
(VBattery Pl
p403
VWest Street
p404
tp405
s(F40.704672
F-74.008126
tp406
(VGouverneur Lane
p407
VWater Street
p408
tp409
s(F40.70448605
F-74.0161361
tp410
(VBattery Pl
p411
VSecret Circle at Battery Park
p412
tp413
s(F40.70971
F-74.012839
tp414
(VCedar Street
p415
VGreenwich Street
p416
tp417
s(F40.7045575
F-74.0151428
tp418
(VHugh L. Carey Tunnel
p419
VKenyon & Kenyon LLP
p420
tp421
s(F40.7098025
F-73.9919815
tp422
(VPike Slip
p423
VSouth Street
p424
tp425
s(F40.7100775
F-74.0133461
tp426
(VLiving Room Bar & Terrace @ W New York - Downtown
p427
VWorld Center Hotel
p428
tp429
s(F40.7101245
F-74.00116145
tp430
(VPearl Street
p431
VRobert F. Wagner Sr. Place
p432
tp433
s(F40.7038032
F-74.017415
tp434
(VBattery Park Yoga
p435
VNew York Water Taxi - Battery Park
p436
tp437
s(F40.708144700000005
F-74.0034931
tp438
(VBeekman Street
p439
VPearl Street
p440
tp441
s(F40.706953
F-74.008996
tp442
(VPine Street
p443
VWilliam Street
p444
tp445
s(F40.702493200000006
F-74.01430235
tp446
(V1 State Street
p447
VState Street
p448
tp449
s(F40.706175
F-74.01793
tp450
(V1st Place
p451
VBattery Pl
p452
tp453
s(F40.709154
F-74.010542
tp454
(VBroadway
p455
VLiberty Street
p456
tp457
s(F40.7074957
F-74.011267
tp458
(VNew Street
p459
VWall Street
p460
tp461
s(F40.7127264
F-74.0096747
tp462
(VBarclay Street
p463
VChurch Street
p464
tp465
s(F40.7117846
F-73.9997105
tp466
(VMadison Street
p467
VSaint James Place
p468
tp469
s(F40.7066286
F-74.0162324
tp470
(VF D R Dr
p471
VWest Street
p472
tp473
s(F40.70443043333333
F-74.018197
tp474
(VBattery Park City Greenway
p475
VPier A Harbor House
p476
tp477
s(F40.7048017
F-74.0069496
tp478
(VFront Street
p479
VWall Street
p480
tp481
s(F40.705797
F-74.009866
tp482
(VExchange Place
p483
VWilliam Street
p484
tp485
s(F40.7099178
F-74.006076
tp486
(VAnn Street
p487
VWilliam Street
p488
tp489
s(F40.705148
F-74.009984
tp490
(VBeaver Street
p491
VSouth William Street
p492
VWilliam Street
p493
tp494
s(F40.7047836
F-74.0152442
tp495
(VBattery Pl
p496
VHugh L. Carey Tunnel
p497
tp498
s(F40.7124759
F-74.0048445
tp499
(VBrooklyn Bridge
p500
VCentre Street
p501
VCity Hall Park Greenway
p502
tp503
s(F40.7068323
F-74.0175699
tp504
(V2nd Place
p505
VBattery Pl
p506
tp507
s(F40.7084063
F-74.0047736
tp508
(VCliff Street
p509
VFulton Street
p510
tp511
s(F40.7054111
F-74.0044746
tp512
(VFletcher Street
p513
VSouth Street
p514
tp515
s(F40.7094091
F-74.0051183
tp516
(VAnn Street
p517
VGold Street
p518
tp519
s(F40.7097718
F-74.0130661
tp520
(VAlbany Plaza
p521
VGreenwich Street
p522
tp523
s(F40.7104473
F-74.01426000000001
tp524
(VSMITHRAIS NYC
p525
VWest Street
p526
tp527
s(F40.7079832
F-74.0135999
tp528
(VGreenwich Street
p529
VRector Street
p530
tp531
s(F40.70983075
F-74.0148835
tp532
(VAlbany Street
p533
VWest Street
p534
tp535
s(F40.7098055
F-74.0132048
tp536
(VAlbany Plaza
p537
VAlbany Street
p538
tp539
s(F40.7049909
F-74.0115503
tp540
(VBeaver Street
p541
VBroad Street
p542
tp543
s(F40.709557
F-74.006435
tp544
(VFulton Street
p545
VWilliam Street
p546
tp547
s(F40.7029687
F-74.0115091
tp548
(VBroad Street
p549
VWater Street
p550
tp551
s(F40.7077457
F-74.0157754
tp552
(VWest Street
p553
VWest Thames Street
p554
tp555
s(F40.7055418
F-74.0090528
tp556
(VExchange Place
p557
VHanover Street
p558
tp559
s(F40.7024426
F-74.01655835
tp560
(VMiss New York Ferry
p561
VTable Green Kiosks
p562
tp563
s(F40.7077219
F-74.008269
tp564
(VLiberty Street
p565
VWilliam Street
p566
tp567
s(F40.707387
F-74.005482
tp568
(VJohn Street
p569
VPearl Street
p570
tp571
s(F40.709806
F-74.009988
tp572
(VBroadway
p573
VCortlandt Street
p574
VMaiden Lane
p575
tp576
s(F40.7017938
F-74.0111561
tp577
(VBroad Street
p578
VSouth Street
p579
tp580
s(F40.709044
F-74.008893
tp581
(VMaiden Lane
p582
VNassau Street
p583
tp584
s(F40.7087418
F-74.0132592
tp585
(VCarlisle Street
p586
VGreenwich Street
p587
tp588
s(F40.709095
F-74.0054738
tp589
(VFulton Street
p590
VGold Street
p591
tp592
s(F40.702157299999996
F-74.0159232
tp593
(VF D R Dr
p594
VWorld War II Merchant Marine Memorial Plaza
p595
tp596
s(F40.706146
F-74.0060157
tp597
(VMaiden Lane
p598
VWater Street
p599
tp600
s(F40.7052686
F-74.01516035
tp601
(VBrooklyn Battery Tunnel
p602
VHugh L. Carey Tunnel
p603
tp604
s(F40.7091587
F-74.0130785
tp605
(VAlbany Street
p606
VGreenwich Street
p607
tp608
s(F40.708797
F-74.010846
tp609
(VBroadway
p610
VCedar Street
p611
tp612
s(F40.7025627
F-74.0166316
tp613
(VLeaping Fountain
p614
VMiss New York Ferry
p615
tp616
s(F40.710936
F-74.005048
tp617
(VSpruce Street
p618
VWilliam Street Pedestrian Plaza
p619
tp620
s(F40.7046327
F-74.0142203
tp621
(VBattery Pl
p622
VBroadway
p623
tp624
s(F40.71283785
F-74.01177025
tp625
(VGreenwich Street
p626
VVesey Street
p627
tp628
s(F40.710221
F-74.007745
tp629
(VFulton Street
p630
VNassau Street
p631
tp632
s(F40.706724
F-74.006781
tp633
(VMaiden Lane
p634
VPearl Street
p635
tp636
s(F40.709354
F-74.012992
tp637
(VGreenwich Street
p638
VThames Street
p639
tp640
s(F40.7057934
F-74.0038616
tp641
(VJohn Street
p642
VSouth Street
p643
tp644
s(F40.7069397
F-74.01352614999999
tp645
(VEdgar Street
p646
VTrinity Place
p647
tp648
s(F40.705183
F-74.007392
tp649
(VWall Street
p650
VWater Street
p651
tp652
s(F40.7022375
F-74.0163433
tp653
(VTable Green Kiosks
p654
VWorld War II Merchant Marine Memorial Plaza
p655
tp656
s(F40.7062925
F-74.0143097
tp657
(VGreenwich Street
p658
VMorris Street
p659
VTrinity Place
p660
tp661
s(F40.707219
F-74.007459
tp662
(VGold Street
p663
VLiberty Street
p664
VMaiden Lane
p665
tp666
s(F40.70117395
F-74.0150194
tp667
(VAmver Maritime Relations
p668
VHugh L. Carey Tunnel
p669
tp670
s(F40.709687
F-74.011674
tp671
(VChurch Street
p672
VLiberty Street
p673
VTrinity Place
p674
tp675
s(F40.7077008
F-74.0155122
tp676
(VJoseph P. Ward Street
p677
VWest Street
p678
tp679
s(F40.709306
F-74.011935
tp680
(VCedar Street
p681
VTrinity Place
p682
tp683
s(F40.7113899
F-74.0086338
tp684
(VAnn Street
p685
VBroadway
p686
VPark Row
p687
VVesey Street
p688
tp689
s(F40.7101842
F-74.0130909
tp690
(VBankers Trust Plz
p691
VLiving Room Bar & Terrace @ W New York - Downtown
p692
tp693
s(F40.708846
F-74.002503
tp694
(VPearl Street
p695
VPeck Slip
p696
tp697
s(F40.708304
F-74.011248
tp698
(VBroadway
p699
VPine Street
p700
tp701
s(F40.7053308
F-74.0062136
tp702
(VFront Street
p703
VPine Street
p704
tp705
s(F40.7071567
F-74.0107312
tp706
(VNassau Street
p707
VWall Street
p708
tp709
s(F40.7102593
F-74.0135423
tp710
(VLiberty Street
p711
VView of the World Terrace Club
p712
tp713
s(F40.7121302
F-74.0056926
tp714
(VCentre Street
p715
VSteve Flanders Square
p716
tp717
s(F40.703588
F-74.013114
tp718
(VBridge Street
p719
VWhitehall Street
p720
tp721
s(F40.704285
F-74.007671
tp722
(VFront Street
p723
VGouverneur Lane
p724
tp725
s(F40.707905
F-74.006021
tp726
(VCliff Street
p727
VJohn Street
p728
tp729
s(F40.7035187
F-74.0115825
tp730
(VBridge Street
p731
VBroad Street
p732
VPearl Street
p733
tp734
s(F40.7077665
F-74.011695
tp735
(VBroadway
p736
VWall Street
p737
tp738
s(F40.681832150000005
F-74.00563795
tp739
(VGowanus Expressway
p740
VHugh L. Carey Tunnel
p741
tp742
s(F40.7116883
F-74.0058474
tp743
(VNassau Street
p744
VSpruce Street
p745
tp746
s(F40.7045078
F-74.009424
tp747
(VHanover Square
p748
VPearl Street
p749
VWilliam Street
p750
tp751
s(F40.7036143
F-74.0144036
tp752
(VBridge Street
p753
VState Street
p754
tp755
s(F40.707671
F-74.003108
tp756
(VBeekman Street
p757
VWater Street
p758
tp759
s(F40.706767
F-74.012508
tp760
(VBroadway
p761
VExchange Alley
p762
VExchange Place
p763
tp764
s(F40.7034614
F-74.0163147
tp765
(VBattery Park Underpass
p766
VF D R Dr
p767
tp768
s(F40.706407
F-74.004558
tp769
(VFront Street
p770
VJohn Street
p771
tp772
s(F40.705547
F-74.007949
tp773
(VPearl Street
p774
VWall Street
p775
tp776
s(F40.7022446
F-74.0164842
tp777
(VMiss Ellis Island
p778
VTable Green Kiosks
p779
tp780
s(F40.71065805
F-74.01405655
tp781
(VLiberty Street
p782
VThe Sphere
p783
VWest Street
p784
tp785
s(F40.7040577
F-74.0175918
tp786
(VAmerican Merchant Marines Memorial
p787
VEternal Flame
p788
tp789
s(F40.7059869
F-74.0052181
tp790
(VFletcher Street
p791
VFront Street
p792
tp793
s(F40.7019984
F-74.0157916
tp794
(VFatty Snack
p795
VHugh L. Carey Tunnel
p796
tp797
s(F40.7071202
F-74.0106735
tp798
(VBroad Street
p799
VWall Street
p800
tp801
s(F40.707205
F-74.005951
tp802
(VPearl Street
p803
VPlatt Street
p804
tp805
s(F40.7094458
F-74.0148642
tp806
(VCarlisle Street
p807
VWest Street
p808
tp809
s(F40.7024415
F-74.0128371
tp810
(VNew York Plaza
p811
VState Street Plaza
p812
VWhitehall Street
p813
tp814
s(F40.7037691
F-74.0070607
tp815
(VGouverneur Lane
p816
VSouth Street
p817
tp818
s(F40.7048198
F-74.0054085
tp819
(VPine Street
p820
VSouth Street
p821
tp822
s(F40.7103163
F-74.01393425
tp823
(VBrookfield Place
p824
VLiberty Park
p825
tp826
s(F40.7087143
F-74.0072883
tp827
(VJohn Street
p828
VWilliam Street
p829
tp830
s(F40.7086242
F-74.004227
tp831
(VQuinn Studio
p832
VSquire's Diner
p833
tp834
s(F40.703207
F-74.01257
tp835
(VMoore Street
p836
VPearl Street
p837
tp838
s(F40.7079114
F-74.0001406
tp839
(VDover Street
p840
VSouth Street
p841
tp842
s(F40.7120811
F-74.0119706
tp843
(VFulton Street
p844
VGreenwich Street
p845
tp846
s(F40.7068569
F-74.00367410000001
tp847
(VFront Street
p848
VFulton Street
p849
tp850
s(F40.7072157
F-74.0039648
tp851
(VFulton Street
p852
VWater Street
p853
tp854
s(F40.7119926
F-74.0081225
tp855
(VBarclay Street
p856
VBroadway
p857
tp858
s(F40.711535
F-74.010465
tp859
(VChurch Street
p860
VFulton Street
p861
tp862
s(F40.7015291
F-74.0143358
tp863
(VBattery Park Playground
p864
VF D R Dr
p865
tp866
s(F40.705313
F-74.009016
tp867
(VBeaver Street
p868
VHanover Street
p869
tp870
s(F40.70424115
F-74.01744009999999
tp871
(VEternal Flame
p872
VPier A Plaza
p873
tp874
s(F40.707452
F-74.011947
tp875
(VBroadway
p876
VRector Street
p877
VWall Street Physicians
p878
tp879
s(F40.7090879
F-74.0140487
tp880
(VCarlisle Street
p881
VWashington Street
p882
tp883
s(F40.708592
F-74.0110147
tp884
(VBroadway
p885
VThames Street
p886
tp887
s(F40.7064386
F-74.0150993
tp888
(VMorris Street
p889
VWashington Street
p890
tp891
s(F40.707855
F-74.0068357
tp892
(VGold Street
p893
VPlatt Street
p894
tp895
s(F40.7067145
F-74.0023323
tp896
(VBeekman Street
p897
VSouth Street
p898
tp899
s(F40.707428
F-74.0146924
tp900
(VJoseph P. Ward Street
p901
VWashington Street
p902
tp903
s(F40.708457
F-74.017398
tp904
(VSouth End Avenue
p905
VWest Thames Street
p906
tp907
s(F40.710413
F-74.009474
tp908
(VBroadway
p909
VDey Street
p910
tp911
s(F40.7022615
F-74.0142899
tp912
(V1 State Street
p913
VPeter Minuit Plaza
p914
tp915
s(F40.7062219
F-74.0031867
tp916
(VFulton Street
p917
VSouth Street
p918
tp919
s(F40.7050111
F-74.0126271
tp920
(VBeaver Street
p921
VMarketfield Street
p922
VNew Street
p923
tp924
s.